target datalayout = "e-m:e-p270:32:32-p271:32:32-p272:64:64-i64:64-i128:128-f80:128-n8:16:32:64-S128"
target triple = "x86_64-pc-linux-gnu"

%"class.LIEF::MachO::DyldExportsTrie" = type { %"class.LIEF::MachO::LoadCommand", i32, i32, %"class.tcb::span", %"class.std::vector.0" }
%"class.LIEF::MachO::LoadCommand" = type { %"class.LIEF::Object", %"class.std::vector", i64, i32, i64 }
%"class.LIEF::Object" = type { ptr }
%"class.std::vector" = type { %"struct.std::_Vector_base" }
%"struct.std::_Vector_base" = type { %"struct.std::_Vector_base<unsigned char, std::allocator<unsigned char>>::_Vector_impl" }
%"struct.std::_Vector_base<unsigned char, std::allocator<unsigned char>>::_Vector_impl" = type { %"struct.std::_Vector_base<unsigned char, std::allocator<unsigned char>>::_Vector_impl_data" }
%"struct.std::_Vector_base<unsigned char, std::allocator<unsigned char>>::_Vector_impl_data" = type { ptr, ptr, ptr }
%"class.tcb::span" = type { %"struct.tcb::detail::span_storage" }
%"struct.tcb::detail::span_storage" = type { ptr, i64 }
%"class.std::vector.0" = type { %"struct.std::_Vector_base.1" }
%"struct.std::_Vector_base.1" = type { %"struct.std::_Vector_base<std::unique_ptr<LIEF::MachO::ExportInfo>, std::allocator<std::unique_ptr<LIEF::MachO::ExportInfo>>>::_Vector_impl" }
%"struct.std::_Vector_base<std::unique_ptr<LIEF::MachO::ExportInfo>, std::allocator<std::unique_ptr<LIEF::MachO::ExportInfo>>>::_Vector_impl" = type { %"struct.std::_Vector_base<std::unique_ptr<LIEF::MachO::ExportInfo>, std::allocator<std::unique_ptr<LIEF::MachO::ExportInfo>>>::_Vector_impl_data" }
%"struct.std::_Vector_base<std::unique_ptr<LIEF::MachO::ExportInfo>, std::allocator<std::unique_ptr<LIEF::MachO::ExportInfo>>>::_Vector_impl_data" = type { ptr, ptr, ptr }

; Function Attrs: mustprogress nounwind uwtable
define linkonce_odr void @_ZSt15__alloc_on_swapISaISt10unique_ptrIN4LIEF5MachO10ExportInfoESt14default_deleteIS3_EEEEvRT_S9_(ptr noundef nonnull align 1 dereferenceable(1) %0, ptr noundef nonnull align 1 dereferenceable(1) %1) #2 comdat {
  %3 = alloca ptr, align 8
  %4 = alloca ptr, align 8
  store ptr %0, ptr %3, align 8
  store ptr %1, ptr %4, align 8
  ret void
}

; Function Attrs: mustprogress nounwind uwtable
define linkonce_odr hidden void @_ZNSt12_Vector_baseISt10unique_ptrIN4LIEF5MachO10ExportInfoESt14default_deleteIS3_EESaIS6_EE17_Vector_impl_data12_M_copy_dataERKS9_(ptr noundef nonnull align 8 dereferenceable(24) %0, ptr noundef nonnull align 8 dereferenceable(24) %1) #2 comdat align 2 {
  %3 = alloca ptr, align 8
  %4 = alloca ptr, align 8
  store ptr %0, ptr %3, align 8
  store ptr %1, ptr %4, align 8
  %5 = load ptr, ptr %3, align 8
  %6 = load ptr, ptr %4, align 8
  %7 = getelementptr inbounds %"struct.std::_Vector_base<std::unique_ptr<LIEF::MachO::ExportInfo>, std::allocator<std::unique_ptr<LIEF::MachO::ExportInfo>>>::_Vector_impl_data", ptr %6, i32 0, i32 0
  %8 = load ptr, ptr %7, align 8
  %9 = getelementptr inbounds %"struct.std::_Vector_base<std::unique_ptr<LIEF::MachO::ExportInfo>, std::allocator<std::unique_ptr<LIEF::MachO::ExportInfo>>>::_Vector_impl_data", ptr %5, i32 0, i32 0
  store ptr %8, ptr %9, align 8
  %10 = load ptr, ptr %4, align 8
  %11 = getelementptr inbounds %"struct.std::_Vector_base<std::unique_ptr<LIEF::MachO::ExportInfo>, std::allocator<std::unique_ptr<LIEF::MachO::ExportInfo>>>::_Vector_impl_data", ptr %10, i32 0, i32 1
  %12 = load ptr, ptr %11, align 8
  %13 = getelementptr inbounds %"struct.std::_Vector_base<std::unique_ptr<LIEF::MachO::ExportInfo>, std::allocator<std::unique_ptr<LIEF::MachO::ExportInfo>>>::_Vector_impl_data", ptr %5, i32 0, i32 1
  store ptr %12, ptr %13, align 8
  %14 = load ptr, ptr %4, align 8
  %15 = getelementptr inbounds %"struct.std::_Vector_base<std::unique_ptr<LIEF::MachO::ExportInfo>, std::allocator<std::unique_ptr<LIEF::MachO::ExportInfo>>>::_Vector_impl_data", ptr %14, i32 0, i32 2
  %16 = load ptr, ptr %15, align 8
  %17 = getelementptr inbounds %"struct.std::_Vector_base<std::unique_ptr<LIEF::MachO::ExportInfo>, std::allocator<std::unique_ptr<LIEF::MachO::ExportInfo>>>::_Vector_impl_data", ptr %5, i32 0, i32 2
  store ptr %16, ptr %17, align 8
  ret void
}

; Function Attrs: mustprogress nounwind uwtable
define linkonce_odr hidden void @_ZNSt12_Vector_baseISt10unique_ptrIN4LIEF5MachO10ExportInfoESt14default_deleteIS3_EESaIS6_EE17_Vector_impl_dataC2Ev(ptr noundef nonnull align 8 dereferenceable(24) %0) unnamed_addr #2 comdat align 2 {
  %2 = alloca ptr, align 8
  store ptr %0, ptr %2, align 8
  %3 = load ptr, ptr %2, align 8
  %4 = getelementptr inbounds %"struct.std::_Vector_base<std::unique_ptr<LIEF::MachO::ExportInfo>, std::allocator<std::unique_ptr<LIEF::MachO::ExportInfo>>>::_Vector_impl_data", ptr %3, i32 0, i32 0
  store ptr null, ptr %4, align 8
  %5 = getelementptr inbounds %"struct.std::_Vector_base<std::unique_ptr<LIEF::MachO::ExportInfo>, std::allocator<std::unique_ptr<LIEF::MachO::ExportInfo>>>::_Vector_impl_data", ptr %3, i32 0, i32 1
  store ptr null, ptr %5, align 8
  %6 = getelementptr inbounds %"struct.std::_Vector_base<std::unique_ptr<LIEF::MachO::ExportInfo>, std::allocator<std::unique_ptr<LIEF::MachO::ExportInfo>>>::_Vector_impl_data", ptr %3, i32 0, i32 2
  store ptr null, ptr %6, align 8
  ret void
}

; Function Attrs: noreturn nounwind uwtable
define linkonce_odr hidden void @__clang_call_terminate(ptr noundef %0) #8 comdat {
  %2 = call ptr @__cxa_begin_catch(ptr %0) #10
  call void @_ZSt9terminatev() #11
  unreachable
}

; Function Attrs: mustprogress uwtable
define linkonce_odr hidden void @_ZN9__gnu_cxx14__alloc_traitsISaISt10unique_ptrIN4LIEF5MachO10ExportInfoESt14default_deleteIS4_EEES7_E10_S_on_swapERS8_SA_(ptr noundef nonnull align 1 dereferenceable(1) %0, ptr noundef nonnull align 1 dereferenceable(1) %1) #0 comdat align 2 {
  %3 = alloca ptr, align 8
  %4 = alloca ptr, align 8
  store ptr %0, ptr %3, align 8
  store ptr %1, ptr %4, align 8
  %5 = load ptr, ptr %3, align 8
  %6 = load ptr, ptr %4, align 8
  call void @_ZSt15__alloc_on_swapISaISt10unique_ptrIN4LIEF5MachO10ExportInfoESt14default_deleteIS3_EEEEvRT_S9_(ptr noundef nonnull align 1 dereferenceable(1) %5, ptr noundef nonnull align 1 dereferenceable(1) %6)
  ret void
}

; Function Attrs: mustprogress nounwind uwtable
define linkonce_odr hidden noundef nonnull align 1 dereferenceable(1) ptr @_ZNSt12_Vector_baseISt10unique_ptrIN4LIEF5MachO10ExportInfoESt14default_deleteIS3_EESaIS6_EE19_M_get_Tp_allocatorEv(ptr noundef nonnull align 8 dereferenceable(24) %0) #2 comdat align 2 {
  %2 = alloca ptr, align 8
  store ptr %0, ptr %2, align 8
  %3 = load ptr, ptr %2, align 8
  %4 = getelementptr inbounds %"struct.std::_Vector_base.1", ptr %3, i32 0, i32 0
  ret ptr %4
}

; Function Attrs: mustprogress nounwind uwtable
define linkonce_odr hidden void @_ZNSt12_Vector_baseISt10unique_ptrIN4LIEF5MachO10ExportInfoESt14default_deleteIS3_EESaIS6_EE17_Vector_impl_data12_M_swap_dataERS9_(ptr noundef nonnull align 8 dereferenceable(24) %0, ptr noundef nonnull align 8 dereferenceable(24) %1) #2 comdat align 2 {
  %3 = alloca ptr, align 8
  %4 = alloca ptr, align 8
  %5 = alloca %"struct.std::_Vector_base<std::unique_ptr<LIEF::MachO::ExportInfo>, std::allocator<std::unique_ptr<LIEF::MachO::ExportInfo>>>::_Vector_impl_data", align 8
  store ptr %0, ptr %3, align 8
  store ptr %1, ptr %4, align 8
  %6 = load ptr, ptr %3, align 8
  call void @_ZNSt12_Vector_baseISt10unique_ptrIN4LIEF5MachO10ExportInfoESt14default_deleteIS3_EESaIS6_EE17_Vector_impl_dataC2Ev(ptr noundef nonnull align 8 dereferenceable(24) %5) #10
  call void @_ZNSt12_Vector_baseISt10unique_ptrIN4LIEF5MachO10ExportInfoESt14default_deleteIS3_EESaIS6_EE17_Vector_impl_data12_M_copy_dataERKS9_(ptr noundef nonnull align 8 dereferenceable(24) %5, ptr noundef nonnull align 8 dereferenceable(24) %6) #10
  %7 = load ptr, ptr %4, align 8
  call void @_ZNSt12_Vector_baseISt10unique_ptrIN4LIEF5MachO10ExportInfoESt14default_deleteIS3_EESaIS6_EE17_Vector_impl_data12_M_copy_dataERKS9_(ptr noundef nonnull align 8 dereferenceable(24) %6, ptr noundef nonnull align 8 dereferenceable(24) %7) #10
  %8 = load ptr, ptr %4, align 8
  call void @_ZNSt12_Vector_baseISt10unique_ptrIN4LIEF5MachO10ExportInfoESt14default_deleteIS3_EESaIS6_EE17_Vector_impl_data12_M_copy_dataERKS9_(ptr noundef nonnull align 8 dereferenceable(24) %8, ptr noundef nonnull align 8 dereferenceable(24) %5) #10
  ret void
}

; Function Attrs: mustprogress nounwind uwtable
define linkonce_odr hidden void @_ZNSt6vectorISt10unique_ptrIN4LIEF5MachO10ExportInfoESt14default_deleteIS3_EESaIS6_EE4swapERS8_(ptr noundef nonnull align 8 dereferenceable(24) %0, ptr noundef nonnull align 8 dereferenceable(24) %1) #2 comdat align 2 personality ptr @__gxx_personality_v0 {
  %3 = alloca ptr, align 8
  %4 = alloca ptr, align 8
  store ptr %0, ptr %3, align 8
  store ptr %1, ptr %4, align 8
  %5 = load ptr, ptr %3, align 8
  br label %6

6:                                                ; preds = %2
  br label %7

7:                                                ; preds = %6
  br label %8

8:                                                ; preds = %7
  %9 = getelementptr inbounds %"struct.std::_Vector_base.1", ptr %5, i32 0, i32 0
  %10 = load ptr, ptr %4, align 8
  %11 = getelementptr inbounds %"struct.std::_Vector_base.1", ptr %10, i32 0, i32 0
  call void @_ZNSt12_Vector_baseISt10unique_ptrIN4LIEF5MachO10ExportInfoESt14default_deleteIS3_EESaIS6_EE17_Vector_impl_data12_M_swap_dataERS9_(ptr noundef nonnull align 8 dereferenceable(24) %9, ptr noundef nonnull align 8 dereferenceable(24) %11) #10
  %12 = call noundef nonnull align 1 dereferenceable(1) ptr @_ZNSt12_Vector_baseISt10unique_ptrIN4LIEF5MachO10ExportInfoESt14default_deleteIS3_EESaIS6_EE19_M_get_Tp_allocatorEv(ptr noundef nonnull align 8 dereferenceable(24) %5) #10
  %13 = load ptr, ptr %4, align 8
  %14 = call noundef nonnull align 1 dereferenceable(1) ptr @_ZNSt12_Vector_baseISt10unique_ptrIN4LIEF5MachO10ExportInfoESt14default_deleteIS3_EESaIS6_EE19_M_get_Tp_allocatorEv(ptr noundef nonnull align 8 dereferenceable(24) %13) #10
  invoke void @_ZN9__gnu_cxx14__alloc_traitsISaISt10unique_ptrIN4LIEF5MachO10ExportInfoESt14default_deleteIS4_EEES7_E10_S_on_swapERS8_SA_(ptr noundef nonnull align 1 dereferenceable(1) %12, ptr noundef nonnull align 1 dereferenceable(1) %14)
          to label %15 unwind label %16

15:                                               ; preds = %8
  ret void

16:                                               ; preds = %8
  %17 = landingpad { ptr, i32 }
          catch ptr null
  %18 = extractvalue { ptr, i32 } %17, 0
  call void @__clang_call_terminate(ptr %18) #11
  unreachable
}

; Function Attrs: mustprogress nounwind uwtable
define linkonce_odr void @_ZSt4swapISt10unique_ptrIN4LIEF5MachO10ExportInfoESt14default_deleteIS3_EESaIS6_EEvRSt6vectorIT_T0_ESC_(ptr noundef nonnull align 8 dereferenceable(24) %0, ptr noundef nonnull align 8 dereferenceable(24) %1) #2 comdat {
  %3 = alloca ptr, align 8
  %4 = alloca ptr, align 8
  store ptr %0, ptr %3, align 8
  store ptr %1, ptr %4, align 8
  %5 = load ptr, ptr %3, align 8
  %6 = load ptr, ptr %4, align 8
  call void @_ZNSt6vectorISt10unique_ptrIN4LIEF5MachO10ExportInfoESt14default_deleteIS3_EESaIS6_EE4swapERS8_(ptr noundef nonnull align 8 dereferenceable(24) %5, ptr noundef nonnull align 8 dereferenceable(24) %6) #10
  ret void
}

; Function Attrs: mustprogress nounwind uwtable
define linkonce_odr hidden void @_ZSt4swapIN3tcb4spanIhLm18446744073709551615EEEENSt9enable_ifIXsr6__and_ISt6__not_ISt15__is_tuple_likeIT_EESt21is_move_constructibleIS6_ESt18is_move_assignableIS6_EEE5valueEvE4typeERS6_SF_(ptr noundef nonnull align 8 dereferenceable(16) %0, ptr noundef nonnull align 8 dereferenceable(16) %1) #2 comdat {
  %3 = alloca ptr, align 8
  %4 = alloca ptr, align 8
  %5 = alloca %"class.tcb::span", align 8
  store ptr %0, ptr %3, align 8
  store ptr %1, ptr %4, align 8
  %6 = load ptr, ptr %3, align 8
  call void @llvm.memcpy.p0.p0.i64(ptr align 8 %5, ptr align 8 %6, i64 16, i1 false)
  %7 = load ptr, ptr %4, align 8
  %8 = load ptr, ptr %3, align 8
  call void @llvm.memcpy.p0.p0.i64(ptr align 8 %8, ptr align 8 %7, i64 16, i1 false)
  %9 = load ptr, ptr %4, align 8
  call void @llvm.memcpy.p0.p0.i64(ptr align 8 %9, ptr align 8 %5, i64 16, i1 false)
  ret void
}

; Function Attrs: mustprogress nounwind uwtable
define linkonce_odr void @_ZSt4swapIjENSt9enable_ifIXsr6__and_ISt6__not_ISt15__is_tuple_likeIT_EESt21is_move_constructibleIS3_ESt18is_move_assignableIS3_EEE5valueEvE4typeERS3_SC_(ptr noundef nonnull align 4 dereferenceable(4) %0, ptr noundef nonnull align 4 dereferenceable(4) %1) #2 comdat {
  %3 = alloca ptr, align 8
  %4 = alloca ptr, align 8
  %5 = alloca i32, align 4
  store ptr %0, ptr %3, align 8
  store ptr %1, ptr %4, align 8
  %6 = load ptr, ptr %3, align 8
  %7 = load i32, ptr %6, align 4
  store i32 %7, ptr %5, align 4
  %8 = load ptr, ptr %4, align 8
  %9 = load i32, ptr %8, align 4
  %10 = load ptr, ptr %3, align 8
  store i32 %9, ptr %10, align 4
  %11 = load i32, ptr %5, align 4
  %12 = load ptr, ptr %4, align 8
  store i32 %11, ptr %12, align 4
  ret void
}

; Function Attrs: mustprogress uwtable
define void @_ZN4LIEF5MachO15DyldExportsTrie4swapERS1_(ptr noundef nonnull align 8 dereferenceable(104) %0, ptr noundef nonnull align 8 dereferenceable(104) %1) #0 align 2 {
  %3 = alloca ptr, align 8
  %4 = alloca ptr, align 8
  store ptr %0, ptr %3, align 8
  store ptr %1, ptr %4, align 8
  %5 = load ptr, ptr %3, align 8
  %6 = load ptr, ptr %4, align 8
  call void @_ZN4LIEF5MachO11LoadCommand4swapERS1_(ptr noundef nonnull align 8 dereferenceable(56) %5, ptr noundef nonnull align 8 dereferenceable(56) %6)
  %7 = getelementptr inbounds %"class.LIEF::MachO::DyldExportsTrie", ptr %5, i32 0, i32 1
  %8 = load ptr, ptr %4, align 8
  %9 = getelementptr inbounds %"class.LIEF::MachO::DyldExportsTrie", ptr %8, i32 0, i32 1
  call void @_ZSt4swapIjENSt9enable_ifIXsr6__and_ISt6__not_ISt15__is_tuple_likeIT_EESt21is_move_constructibleIS3_ESt18is_move_assignableIS3_EEE5valueEvE4typeERS3_SC_(ptr noundef nonnull align 4 dereferenceable(4) %7, ptr noundef nonnull align 4 dereferenceable(4) %9) #10
  %10 = getelementptr inbounds %"class.LIEF::MachO::DyldExportsTrie", ptr %5, i32 0, i32 2
  %11 = load ptr, ptr %4, align 8
  %12 = getelementptr inbounds %"class.LIEF::MachO::DyldExportsTrie", ptr %11, i32 0, i32 2
  call void @_ZSt4swapIjENSt9enable_ifIXsr6__and_ISt6__not_ISt15__is_tuple_likeIT_EESt21is_move_constructibleIS3_ESt18is_move_assignableIS3_EEE5valueEvE4typeERS3_SC_(ptr noundef nonnull align 4 dereferenceable(4) %10, ptr noundef nonnull align 4 dereferenceable(4) %12) #10
  %13 = getelementptr inbounds %"class.LIEF::MachO::DyldExportsTrie", ptr %5, i32 0, i32 3
  %14 = load ptr, ptr %4, align 8
  %15 = getelementptr inbounds %"class.LIEF::MachO::DyldExportsTrie", ptr %14, i32 0, i32 3
  call void @_ZSt4swapIN3tcb4spanIhLm18446744073709551615EEEENSt9enable_ifIXsr6__and_ISt6__not_ISt15__is_tuple_likeIT_EESt21is_move_constructibleIS6_ESt18is_move_assignableIS6_EEE5valueEvE4typeERS6_SF_(ptr noundef nonnull align 8 dereferenceable(16) %13, ptr noundef nonnull align 8 dereferenceable(16) %15) #10
  %16 = getelementptr inbounds %"class.LIEF::MachO::DyldExportsTrie", ptr %5, i32 0, i32 4
  %17 = load ptr, ptr %4, align 8
  %18 = getelementptr inbounds %"class.LIEF::MachO::DyldExportsTrie", ptr %17, i32 0, i32 4
  call void @_ZSt4swapISt10unique_ptrIN4LIEF5MachO10ExportInfoESt14default_deleteIS3_EESaIS6_EEvRSt6vectorIT_T0_ESC_(ptr noundef nonnull align 8 dereferenceable(24) %16, ptr noundef nonnull align 8 dereferenceable(24) %18) #10
  ret void
}