; Function Attrs: mustprogress uwtable
define void @_ZN4LIEF5MachO15DyldExportsTrie4swapERS1_(ptr noundef nonnull align 8 dereferenceable(104) %0, ptr noundef nonnull align 8 dereferenceable(104) %1) local_unnamed_addr #0 align 2 personality ptr @__gxx_personality_v0 {
  %.sroa.0.i = alloca %"struct.tcb::detail::span_storage", align 8
  tail call void @_ZN4LIEF5MachO11LoadCommand4swapERS1_(ptr noundef nonnull align 8 dereferenceable(56) %0, ptr noundef nonnull align 8 dereferenceable(56) %1)
  %3 = getelementptr inbounds i8, ptr %0, i64 56
  %4 = getelementptr inbounds i8, ptr %1, i64 56
  %5 = load i32, ptr %3, align 8
  %6 = load i32, ptr %4, align 8
  store i32 %6, ptr %3, align 8
  store i32 %5, ptr %4, align 8
  %7 = getelementptr inbounds i8, ptr %0, i64 60
  %8 = getelementptr inbounds i8, ptr %1, i64 60
  %9 = load i32, ptr %7, align 4
  %10 = load i32, ptr %8, align 4
  store i32 %10, ptr %7, align 4
  store i32 %9, ptr %8, align 4
  %11 = getelementptr inbounds i8, ptr %0, i64 64
  %12 = getelementptr inbounds i8, ptr %1, i64 64
  call void @llvm.lifetime.start.p0(i64 16, ptr nonnull %.sroa.0.i)
  call void @llvm.memcpy.p0.p0.i64(ptr noundef nonnull align 8 dereferenceable(16) %.sroa.0.i, ptr noundef nonnull align 8 dereferenceable(16) %11, i64 16, i1 false)
  tail call void @llvm.memcpy.p0.p0.i64(ptr noundef nonnull align 8 dereferenceable(16) %11, ptr noundef nonnull align 8 dereferenceable(16) %12, i64 16, i1 false)
  call void @llvm.memcpy.p0.p0.i64(ptr noundef nonnull align 8 dereferenceable(16) %12, ptr noundef nonnull align 8 dereferenceable(16) %.sroa.0.i, i64 16, i1 false)
  call void @llvm.lifetime.end.p0(i64 16, ptr nonnull %.sroa.0.i)
  %13 = getelementptr inbounds i8, ptr %0, i64 80
  %14 = getelementptr inbounds i8, ptr %1, i64 80
  %15 = getelementptr inbounds i8, ptr %0, i64 88
  %16 = getelementptr inbounds i8, ptr %0, i64 96
  %17 = load ptr, ptr %16, align 8
  %18 = load ptr, ptr %14, align 8
  %19 = getelementptr inbounds i8, ptr %1, i64 88
  %20 = getelementptr inbounds i8, ptr %1, i64 96
  %21 = load <2 x ptr>, ptr %13, align 8
  store ptr %18, ptr %13, align 8
  %22 = load ptr, ptr %19, align 8
  store ptr %22, ptr %15, align 8
  %23 = load ptr, ptr %20, align 8
  store ptr %23, ptr %16, align 8
  store <2 x ptr> %21, ptr %14, align 8
  store ptr %17, ptr %20, align 8
  ret void
}